target datalayout = "e-m:e-p270:32:32-p271:32:32-p272:64:64-i64:64-i128:128-f80:128-n8:16:32:64-S128"
target triple = "x86_64-pc-linux-gnu"

%struct.mime_header_st = type { ptr, ptr, ptr }

; Function Attrs: inlinehint nounwind uwtable
define internal ptr @sk_MIME_HEADER_value(ptr noundef %0, i32 noundef %1) #3 {
  %3 = alloca ptr, align 8
  %4 = alloca i32, align 4
  store ptr %0, ptr %3, align 8, !tbaa !56
  store i32 %1, ptr %4, align 4, !tbaa !10
  %5 = load ptr, ptr %3, align 8, !tbaa !56
  %6 = load i32, ptr %4, align 4, !tbaa !10
  %7 = call ptr @OPENSSL_sk_value(ptr noundef %5, i32 noundef %6)
  ret ptr %7
}

; Function Attrs: inlinehint nounwind uwtable
define internal i32 @sk_MIME_HEADER_find(ptr noundef %0, ptr noundef %1) #3 {
  %3 = alloca ptr, align 8
  %4 = alloca ptr, align 8
  store ptr %0, ptr %3, align 8, !tbaa !56
  store ptr %1, ptr %4, align 8, !tbaa !60
  %5 = load ptr, ptr %3, align 8, !tbaa !56
  %6 = load ptr, ptr %4, align 8, !tbaa !60
  %7 = call i32 @OPENSSL_sk_find(ptr noundef %5, ptr noundef %6)
  ret i32 %7
}

; Function Attrs: nounwind uwtable
define internal ptr @mime_hdr_find(ptr noundef %0, ptr noundef %1) #0 {
  %3 = alloca ptr, align 8
  %4 = alloca ptr, align 8
  %5 = alloca %struct.mime_header_st, align 8
  %6 = alloca i32, align 4
  store ptr %0, ptr %3, align 8, !tbaa !56
  store ptr %1, ptr %4, align 8, !tbaa !20
  call void @llvm.lifetime.start.p0(i64 24, ptr %5) #5
  call void @llvm.lifetime.start.p0(i64 4, ptr %6) #5
  %7 = load ptr, ptr %4, align 8, !tbaa !20
  %8 = getelementptr inbounds nuw %struct.mime_header_st, ptr %5, i32 0, i32 0
  store ptr %7, ptr %8, align 8, !tbaa !73
  %9 = getelementptr inbounds nuw %struct.mime_header_st, ptr %5, i32 0, i32 1
  store ptr null, ptr %9, align 8, !tbaa !62
  %10 = getelementptr inbounds nuw %struct.mime_header_st, ptr %5, i32 0, i32 2
  store ptr null, ptr %10, align 8, !tbaa !71
  %11 = load ptr, ptr %3, align 8, !tbaa !56
  %12 = call i32 @sk_MIME_HEADER_find(ptr noundef %11, ptr noundef %5)
  store i32 %12, ptr %6, align 4, !tbaa !10
  %13 = load ptr, ptr %3, align 8, !tbaa !56
  %14 = load i32, ptr %6, align 4, !tbaa !10
  %15 = call ptr @sk_MIME_HEADER_value(ptr noundef %13, i32 noundef %14)
  call void @llvm.lifetime.end.p0(i64 4, ptr %6) #5
  call void @llvm.lifetime.end.p0(i64 24, ptr %5) #5
  ret ptr %15
}