; Function Attrs: nounwind uwtable
define internal fastcc ptr @mime_hdr_find(ptr noundef nonnull %0) unnamed_addr #0 {
  %2 = alloca %struct.mime_header_st, align 8
  call void @llvm.lifetime.start.p0(i64 24, ptr nonnull %2) #6
  store ptr @.str.35, ptr %2, align 8, !tbaa !41
  %3 = getelementptr inbounds nuw i8, ptr %2, i64 8
  call void @llvm.memset.p0.i64(ptr noundef nonnull align 8 dereferenceable(16) %3, i8 0, i64 16, i1 false)
  %4 = call i32 @OPENSSL_sk_find(ptr noundef nonnull %0, ptr noundef nonnull %2) #6
  %5 = call ptr @OPENSSL_sk_value(ptr noundef nonnull %0, i32 noundef %4) #6
  call void @llvm.lifetime.end.p0(i64 24, ptr nonnull %2) #6
  ret ptr %5
}